target datalayout = "e-m:e-p270:32:32-p271:32:32-p272:64:64-i64:64-i128:128-f80:128-n8:16:32:64-S128"
target triple = "x86_64-pc-linux-gnu"

%"struct.Luau::TypeLevel" = type { i32, i32 }
%"struct.Luau::FreeType" = type { i32, %"struct.Luau::TypeLevel", ptr, i8, ptr, ptr }

; Function Attrs: mustprogress uwtable
define dso_local void @_ZN4Luau8FreeTypeC2EPNS_5ScopeENS_9TypeLevelEPKNS_4TypeES6_(ptr noundef nonnull align 8 dereferenceable(48) %0, ptr noundef %1, i64 %2, ptr noundef %3, ptr noundef %4) unnamed_addr #3 align 2 {
  %6 = alloca %"struct.Luau::TypeLevel", align 4
  %7 = alloca ptr, align 8
  %8 = alloca ptr, align 8
  %9 = alloca ptr, align 8
  %10 = alloca ptr, align 8
  store i64 %2, ptr %6, align 4
  store ptr %0, ptr %7, align 8, !tbaa !181
  store ptr %1, ptr %8, align 8, !tbaa !192
  store ptr %3, ptr %9, align 8, !tbaa !29
  store ptr %4, ptr %10, align 8, !tbaa !29
  %11 = load ptr, ptr %7, align 8
  %12 = getelementptr inbounds nuw %"struct.Luau::FreeType", ptr %11, i32 0, i32 0
  %13 = call noundef i32 @_ZN4Luau9Unifiable10freshIndexEv()
  store i32 %13, ptr %12, align 8, !tbaa !183
  %14 = getelementptr inbounds nuw %"struct.Luau::FreeType", ptr %11, i32 0, i32 1
  call void @llvm.memcpy.p0.p0.i64(ptr align 4 %14, ptr align 4 %6, i64 8, i1 false), !tbaa.struct !187
  %15 = getelementptr inbounds nuw %"struct.Luau::FreeType", ptr %11, i32 0, i32 2
  %16 = load ptr, ptr %8, align 8, !tbaa !192
  store ptr %16, ptr %15, align 8, !tbaa !188
  %17 = getelementptr inbounds nuw %"struct.Luau::FreeType", ptr %11, i32 0, i32 3
  store i8 0, ptr %17, align 8, !tbaa !189
  %18 = getelementptr inbounds nuw %"struct.Luau::FreeType", ptr %11, i32 0, i32 4
  %19 = load ptr, ptr %9, align 8, !tbaa !29
  store ptr %19, ptr %18, align 8, !tbaa !190
  %20 = getelementptr inbounds nuw %"struct.Luau::FreeType", ptr %11, i32 0, i32 5
  %21 = load ptr, ptr %10, align 8, !tbaa !29
  store ptr %21, ptr %20, align 8, !tbaa !191
  ret void
}