; Function Attrs: mustprogress uwtable
define dso_local void @_ZN4Luau8FreeTypeC2EPNS_5ScopeENS_9TypeLevelEPKNS_4TypeES6_(ptr noundef nonnull writeonly align 8 captures(none) dereferenceable(48) initializes((0, 12), (16, 25), (32, 48)) %0, ptr noundef %1, i64 %2, ptr noundef %3, ptr noundef %4) unnamed_addr #2 align 2 {
  %6 = tail call noundef i32 @_ZN4Luau9Unifiable10freshIndexEv()
  store i32 %6, ptr %0, align 8, !tbaa !160
  %7 = getelementptr inbounds nuw i8, ptr %0, i64 4
  store i64 %2, ptr %7, align 4
  %8 = getelementptr inbounds nuw i8, ptr %0, i64 16
  store ptr %1, ptr %8, align 8, !tbaa !164
  %9 = getelementptr inbounds nuw i8, ptr %0, i64 24
  store i8 0, ptr %9, align 8, !tbaa !165
  %10 = getelementptr inbounds nuw i8, ptr %0, i64 32
  store ptr %3, ptr %10, align 8, !tbaa !166
  %11 = getelementptr inbounds nuw i8, ptr %0, i64 40
  store ptr %4, ptr %11, align 8, !tbaa !167
  ret void
}